target datalayout = "e-m:e-p270:32:32-p271:32:32-p272:64:64-i64:64-i128:128-f80:128-n8:16:32:64-S128"
target triple = "x86_64-pc-linux-gnu"

%struct.OpusPsyContext = type { ptr, ptr, ptr, ptr, [2 x [21 x %struct.OpusBandExcitation]], [2 x [21 x %struct.FFBesselFilter]], [2 x [21 x %struct.FFBesselFilter]], [146 x ptr], i32, [4 x ptr], [4 x ptr], [4 x ptr], i32, [12 x i8], [2048 x float], float, i64, i64, %struct.OpusPacketInfo, i32, i32, i32, float, ptr, i32, [12 x i8] }
%struct.OpusBandExcitation = type { float, float, float }
%struct.FFBesselFilter = type { [3 x float], [2 x float], [3 x float], [3 x float] }
%struct.OpusPacketInfo = type { i32, i32, i32, i32 }
%struct.OpusPsyStep = type { i32, i32, [2 x [21 x float]], [2 x [21 x float]], [21 x float], [2 x [21 x float]], float, [2 x [21 x ptr]], [2 x [960 x float]] }

; Function Attrs: nounwind uwtable
define internal void @search_for_change_points(ptr noundef %0, float noundef %1, i32 noundef %2, i32 noundef %3, i32 noundef %4, i32 noundef %5) #0 {
  %7 = alloca ptr, align 8
  %8 = alloca float, align 4
  %9 = alloca i32, align 4
  %10 = alloca i32, align 4
  %11 = alloca i32, align 4
  %12 = alloca i32, align 4
  %13 = alloca i32, align 4
  %14 = alloca float, align 4
  %15 = alloca i32, align 4
  store ptr %0, ptr %7, align 8, !tbaa !4
  store float %1, ptr %8, align 4, !tbaa !11
  store i32 %2, ptr %9, align 4, !tbaa !26
  store i32 %3, ptr %10, align 4, !tbaa !26
  store i32 %4, ptr %11, align 4, !tbaa !26
  store i32 %5, ptr %12, align 4, !tbaa !26
  call void @llvm.lifetime.start.p0(i64 4, ptr %13) #11
  call void @llvm.lifetime.start.p0(i64 4, ptr %14) #11
  store float 0.000000e+00, ptr %14, align 4, !tbaa !11
  %16 = load i32, ptr %10, align 4, !tbaa !26
  %17 = load i32, ptr %9, align 4, !tbaa !26
  %18 = sub nsw i32 %16, %17
  %19 = load i32, ptr %11, align 4, !tbaa !26
  %20 = icmp sle i32 %18, %19
  br i1 %20, label %21, label %22

21:                                               ; preds = %6
  store i32 1, ptr %15, align 4
  br label %81

22:                                               ; preds = %6
  %23 = load i32, ptr %9, align 4, !tbaa !26
  store i32 %23, ptr %13, align 4, !tbaa !26
  br label %24

24:                                               ; preds = %44, %22
  %25 = load i32, ptr %13, align 4, !tbaa !26
  %26 = load i32, ptr %10, align 4, !tbaa !26
  %27 = icmp slt i32 %25, %26
  br i1 %27, label %28, label %47

28:                                               ; preds = %24
  %29 = load ptr, ptr %7, align 8, !tbaa !4
  %30 = getelementptr inbounds nuw %struct.OpusPsyContext, ptr %29, i32 0, i32 7
  %31 = load i32, ptr %13, align 4, !tbaa !26
  %32 = sext i32 %31 to i64
  %33 = getelementptr inbounds [146 x ptr], ptr %30, i64 0, i64 %32
  %34 = load ptr, ptr %33, align 8, !tbaa !28
  %35 = getelementptr inbounds nuw %struct.OpusPsyStep, ptr %34, i32 0, i32 6
  %36 = load float, ptr %35, align 4, !tbaa !30
  %37 = load float, ptr %14, align 4, !tbaa !11
  %38 = fadd nsz float %37, %36
  store float %38, ptr %14, align 4, !tbaa !11
  %39 = load float, ptr %14, align 4, !tbaa !11
  %40 = load float, ptr %8, align 4, !tbaa !11
  %41 = fcmp nsz ogt float %39, %40
  br i1 %41, label %42, label %43

42:                                               ; preds = %28
  br label %47

43:                                               ; preds = %28
  br label %44

44:                                               ; preds = %43
  %45 = load i32, ptr %13, align 4, !tbaa !26
  %46 = add nsw i32 %45, 1
  store i32 %46, ptr %13, align 4, !tbaa !26
  br label %24, !llvm.loop !98

47:                                               ; preds = %42, %24
  %48 = load i32, ptr %13, align 4, !tbaa !26
  %49 = load i32, ptr %10, align 4, !tbaa !26
  %50 = icmp eq i32 %48, %49
  br i1 %50, label %51, label %52

51:                                               ; preds = %47
  store i32 1, ptr %15, align 4
  br label %81

52:                                               ; preds = %47
  %53 = load ptr, ptr %7, align 8, !tbaa !4
  %54 = load float, ptr %8, align 4, !tbaa !11
  %55 = fdiv nsz float %54, 2.000000e+00
  %56 = load i32, ptr %9, align 4, !tbaa !26
  %57 = load i32, ptr %13, align 4, !tbaa !26
  %58 = add nsw i32 %57, 0
  %59 = load i32, ptr %11, align 4, !tbaa !26
  %60 = load i32, ptr %12, align 4, !tbaa !26
  %61 = add nsw i32 %60, 1
  call void @search_for_change_points(ptr noundef %53, float noundef %55, i32 noundef %56, i32 noundef %58, i32 noundef %59, i32 noundef %61)
  %62 = load i32, ptr %13, align 4, !tbaa !26
  %63 = load ptr, ptr %7, align 8, !tbaa !4
  %64 = getelementptr inbounds nuw %struct.OpusPsyContext, ptr %63, i32 0, i32 23
  %65 = load ptr, ptr %64, align 8, !tbaa !99
  %66 = load ptr, ptr %7, align 8, !tbaa !4
  %67 = getelementptr inbounds nuw %struct.OpusPsyContext, ptr %66, i32 0, i32 24
  %68 = load i32, ptr %67, align 16, !tbaa !100
  %69 = add nsw i32 %68, 1
  store i32 %69, ptr %67, align 16, !tbaa !100
  %70 = sext i32 %68 to i64
  %71 = getelementptr inbounds i32, ptr %65, i64 %70
  store i32 %62, ptr %71, align 4, !tbaa !26
  %72 = load ptr, ptr %7, align 8, !tbaa !4
  %73 = load float, ptr %8, align 4, !tbaa !11
  %74 = fdiv nsz float %73, 2.000000e+00
  %75 = load i32, ptr %13, align 4, !tbaa !26
  %76 = add nsw i32 %75, 1
  %77 = load i32, ptr %10, align 4, !tbaa !26
  %78 = load i32, ptr %11, align 4, !tbaa !26
  %79 = load i32, ptr %12, align 4, !tbaa !26
  %80 = add nsw i32 %79, 1
  call void @search_for_change_points(ptr noundef %72, float noundef %74, i32 noundef %76, i32 noundef %77, i32 noundef %78, i32 noundef %80)
  store i32 0, ptr %15, align 4
  br label %81

81:                                               ; preds = %52, %51, %21
  call void @llvm.lifetime.end.p0(i64 4, ptr %14) #11
  call void @llvm.lifetime.end.p0(i64 4, ptr %13) #11
  %82 = load i32, ptr %15, align 4
  switch i32 %82, label %84 [
    i32 0, label %83
    i32 1, label %83
  ]

83:                                               ; preds = %81, %81
  ret void

84:                                               ; preds = %81
  unreachable
}