; Function Attrs: nofree nosync nounwind memory(readwrite, inaccessiblemem: none) uwtable
define internal fastcc void @search_for_change_points(ptr noundef captures(none) %0, float noundef %1, i32 noundef range(i32 -2147483647, -2147483648) %2, i32 noundef %3, i32 noundef %4) unnamed_addr #2 {
  %6 = sub nsw i32 %3, %2
  %7 = icmp slt i32 %6, 2
  br i1 %7, label %._crit_edge44, label %.preheader.lr.ph

.preheader.lr.ph:                                 ; preds = %5
  %8 = getelementptr inbounds nuw i8, ptr %0, i64 4232
  %9 = getelementptr inbounds nuw i8, ptr %0, i64 13768
  %10 = getelementptr inbounds nuw i8, ptr %0, i64 13776
  %11 = sext i32 %3 to i64
  br label %.preheader

.preheader:                                       ; preds = %.preheader.lr.ph, %tailrecurse
  %.tr3643 = phi i32 [ %4, %.preheader.lr.ph ], [ %24, %tailrecurse ]
  %.tr3342 = phi i32 [ %2, %.preheader.lr.ph ], [ %30, %tailrecurse ]
  %.tr3241 = phi float [ %1, %.preheader.lr.ph ], [ %23, %tailrecurse ]
  %12 = icmp slt i32 %.tr3342, %3
  br i1 %12, label %.lr.ph.preheader, label %._crit_edge

.lr.ph.preheader:                                 ; preds = %.preheader
  %13 = sext i32 %.tr3342 to i64
  br label %.lr.ph

.lr.ph:                                           ; preds = %.lr.ph.preheader, %20
  %indvars.iv = phi i64 [ %13, %.lr.ph.preheader ], [ %indvars.iv.next, %20 ]
  %.038 = phi float [ 0.000000e+00, %.lr.ph.preheader ], [ %18, %20 ]
  %14 = getelementptr inbounds [146 x ptr], ptr %8, i64 0, i64 %indvars.iv
  %15 = load ptr, ptr %14, align 8, !tbaa !22
  %16 = getelementptr inbounds nuw i8, ptr %15, i64 596
  %17 = load float, ptr %16, align 4, !tbaa !81
  %18 = fadd nsz float %.038, %17
  %19 = fcmp nsz ogt float %18, %.tr3241
  br i1 %19, label %._crit_edge.loopexit, label %20

20:                                               ; preds = %.lr.ph
  %indvars.iv.next = add nsw i64 %indvars.iv, 1
  %exitcond.not = icmp eq i64 %indvars.iv.next, %11
  br i1 %exitcond.not, label %._crit_edge44, label %.lr.ph, !llvm.loop !101

._crit_edge.loopexit:                             ; preds = %.lr.ph
  %21 = trunc nsw i64 %indvars.iv to i32
  br label %._crit_edge

._crit_edge:                                      ; preds = %._crit_edge.loopexit, %.preheader
  %.028.lcssa = phi i32 [ %.tr3342, %.preheader ], [ %21, %._crit_edge.loopexit ]
  %22 = icmp eq i32 %.028.lcssa, %3
  br i1 %22, label %._crit_edge44, label %tailrecurse

tailrecurse:                                      ; preds = %._crit_edge
  %23 = fmul nsz float %.tr3241, 5.000000e-01
  %24 = add nsw i32 %.tr3643, 1
  tail call fastcc void @search_for_change_points(ptr noundef %0, float noundef %23, i32 noundef %.tr3342, i32 noundef %.028.lcssa, i32 noundef %24)
  %25 = load ptr, ptr %9, align 8, !tbaa !102
  %26 = load i32, ptr %10, align 16, !tbaa !103
  %27 = add nsw i32 %26, 1
  store i32 %27, ptr %10, align 16, !tbaa !103
  %28 = sext i32 %26 to i64
  %29 = getelementptr inbounds i32, ptr %25, i64 %28
  store i32 %.028.lcssa, ptr %29, align 4, !tbaa !104
  %30 = add nsw i32 %.028.lcssa, 1
  %31 = sub nsw i32 %3, %30
  %32 = icmp slt i32 %31, 2
  br i1 %32, label %._crit_edge44, label %.preheader

._crit_edge44:                                    ; preds = %tailrecurse, %._crit_edge, %20, %5
  ret void
}